target datalayout = "e-m:e-p270:32:32-p271:32:32-p272:64:64-i64:64-i128:128-f80:128-n8:16:32:64-S128"
target triple = "x86_64-unknown-linux-gnu"

%struct.DOECap = type { ptr, i16, %struct.anon, %struct.anon.0, %struct.anon.1, ptr, ptr, i32, i32, i32, ptr, i16 }
%struct.anon = type { i8, i16 }
%struct.anon.0 = type { i8, i8, i8 }
%struct.anon.1 = type { i8, i8, i8, i8 }
%struct.DOEProtocol = type { i16, i8, ptr }
%struct.DOEHeader = type { i16, i8, i8, i32 }
%struct.DoeDiscoveryRsp = type { %struct.DOEHeader, i16, i8, i8 }
%struct.DoeDiscoveryReq = type { %struct.DOEHeader, i8, [3 x i8] }

; Function Attrs: nounwind sspstrong uwtable
define dso_local void @pcie_doe_set_rsp(ptr noundef %doe_cap, ptr noundef %rsp) #0 {
entry:
  %doe_cap.addr = alloca ptr, align 8
  %rsp.addr = alloca ptr, align 8
  %len = alloca i32, align 4
  store ptr %doe_cap, ptr %doe_cap.addr, align 8
  store ptr %rsp, ptr %rsp.addr, align 8
  %0 = load ptr, ptr %rsp.addr, align 8
  %call = call i32 @pcie_doe_get_obj_len(ptr noundef %0)
  store i32 %call, ptr %len, align 4
  %1 = load ptr, ptr %doe_cap.addr, align 8
  %read_mbox = getelementptr inbounds %struct.DOECap, ptr %1, i32 0, i32 6
  %2 = load ptr, ptr %read_mbox, align 8
  %3 = load ptr, ptr %doe_cap.addr, align 8
  %read_mbox_len = getelementptr inbounds %struct.DOECap, ptr %3, i32 0, i32 8
  %4 = load i32, ptr %read_mbox_len, align 4
  %idx.ext = zext i32 %4 to i64
  %add.ptr = getelementptr i32, ptr %2, i64 %idx.ext
  %5 = load ptr, ptr %rsp.addr, align 8
  %6 = load i32, ptr %len, align 4
  %mul = mul i32 %6, 4
  %conv = zext i32 %mul to i64
  call void @llvm.memcpy.p0.p0.i64(ptr align 4 %add.ptr, ptr align 1 %5, i64 %conv, i1 false)
  %7 = load i32, ptr %len, align 4
  %8 = load ptr, ptr %doe_cap.addr, align 8
  %read_mbox_len1 = getelementptr inbounds %struct.DOECap, ptr %8, i32 0, i32 8
  %9 = load i32, ptr %read_mbox_len1, align 4
  %add = add i32 %9, %7
  store i32 %add, ptr %read_mbox_len1, align 4
  ret void
}

; Function Attrs: nounwind sspstrong uwtable
define dso_local i32 @pcie_doe_get_obj_len(ptr noundef %obj) #0 {
entry:
  %retval = alloca i32, align 4
  %obj.addr = alloca ptr, align 8
  %len = alloca i32, align 4
  store ptr %obj, ptr %obj.addr, align 8
  %0 = load ptr, ptr %obj.addr, align 8
  %tobool = icmp ne ptr %0, null
  br i1 %tobool, label %if.end, label %if.then

if.then:                                          ; preds = %entry
  store i32 0, ptr %retval, align 4
  br label %return

if.end:                                           ; preds = %entry
  %1 = load ptr, ptr %obj.addr, align 8
  %length = getelementptr inbounds %struct.DOEHeader, ptr %1, i32 0, i32 3
  %2 = load i32, ptr %length, align 1
  %and = and i32 %2, 262143
  store i32 %and, ptr %len, align 4
  %3 = load i32, ptr %len, align 4
  %tobool1 = icmp ne i32 %3, 0
  br i1 %tobool1, label %cond.true, label %cond.false

cond.true:                                        ; preds = %if.end
  %4 = load i32, ptr %len, align 4
  br label %cond.end

cond.false:                                       ; preds = %if.end
  br label %cond.end

cond.end:                                         ; preds = %cond.false, %cond.true
  %cond = phi i32 [ %4, %cond.true ], [ 262144, %cond.false ]
  store i32 %cond, ptr %retval, align 4
  br label %return

return:                                           ; preds = %cond.end, %if.then
  %5 = load i32, ptr %retval, align 4
  ret i32 %5
}

; Function Attrs: nounwind sspstrong uwtable
define dso_local ptr @pcie_doe_get_write_mbox_ptr(ptr noundef %doe_cap) #0 {
entry:
  %doe_cap.addr = alloca ptr, align 8
  store ptr %doe_cap, ptr %doe_cap.addr, align 8
  %0 = load ptr, ptr %doe_cap.addr, align 8
  %write_mbox = getelementptr inbounds %struct.DOECap, ptr %0, i32 0, i32 5
  %1 = load ptr, ptr %write_mbox, align 8
  ret ptr %1
}

; Function Attrs: nounwind sspstrong uwtable
define internal zeroext i1 @pcie_doe_discovery(ptr noundef %doe_cap) #0 {
entry:
  %retval = alloca i1, align 1
  %doe_cap.addr = alloca ptr, align 8
  %req = alloca ptr, align 8
  %rsp = alloca %struct.DoeDiscoveryRsp, align 1
  %index = alloca i8, align 1
  %prot = alloca ptr, align 8
  %.compoundliteral = alloca %struct.DOEHeader, align 1
  store ptr %doe_cap, ptr %doe_cap.addr, align 8
  %0 = load ptr, ptr %doe_cap.addr, align 8
  %call = call ptr @pcie_doe_get_write_mbox_ptr(ptr noundef %0)
  store ptr %call, ptr %req, align 8
  %1 = load ptr, ptr %req, align 8
  %index1 = getelementptr inbounds %struct.DoeDiscoveryReq, ptr %1, i32 0, i32 1
  %2 = load i8, ptr %index1, align 1
  store i8 %2, ptr %index, align 1
  %3 = load ptr, ptr %req, align 8
  %call2 = call i32 @pcie_doe_get_obj_len(ptr noundef %3)
  %conv = zext i32 %call2 to i64
  %cmp = icmp ult i64 %conv, 3
  br i1 %cmp, label %if.then, label %if.end

if.then:                                          ; preds = %entry
  store i1 false, ptr %retval, align 1
  br label %return

if.end:                                           ; preds = %entry
  %header = getelementptr inbounds %struct.DoeDiscoveryRsp, ptr %rsp, i32 0, i32 0
  %vendor_id = getelementptr inbounds %struct.DOEHeader, ptr %.compoundliteral, i32 0, i32 0
  store i16 1, ptr %vendor_id, align 1
  %data_obj_type = getelementptr inbounds %struct.DOEHeader, ptr %.compoundliteral, i32 0, i32 1
  store i8 0, ptr %data_obj_type, align 1
  %reserved = getelementptr inbounds %struct.DOEHeader, ptr %.compoundliteral, i32 0, i32 2
  store i8 0, ptr %reserved, align 1
  %length = getelementptr inbounds %struct.DOEHeader, ptr %.compoundliteral, i32 0, i32 3
  store i32 3, ptr %length, align 1
  call void @llvm.memcpy.p0.p0.i64(ptr align 1 %header, ptr align 1 %.compoundliteral, i64 8, i1 false)
  %4 = load i8, ptr %index, align 1
  %conv4 = zext i8 %4 to i32
  %cmp5 = icmp eq i32 %conv4, 0
  br i1 %cmp5, label %if.then7, label %if.else

if.then7:                                         ; preds = %if.end
  %vendor_id8 = getelementptr inbounds %struct.DoeDiscoveryRsp, ptr %rsp, i32 0, i32 1
  store i16 1, ptr %vendor_id8, align 1
  %data_obj_type9 = getelementptr inbounds %struct.DoeDiscoveryRsp, ptr %rsp, i32 0, i32 2
  store i8 0, ptr %data_obj_type9, align 1
  br label %if.end24

if.else:                                          ; preds = %if.end
  %5 = load i8, ptr %index, align 1
  %conv10 = zext i8 %5 to i32
  %6 = load ptr, ptr %doe_cap.addr, align 8
  %protocol_num = getelementptr inbounds %struct.DOECap, ptr %6, i32 0, i32 11
  %7 = load i16, ptr %protocol_num, align 8
  %conv11 = zext i16 %7 to i32
  %cmp12 = icmp slt i32 %conv10, %conv11
  br i1 %cmp12, label %if.then14, label %if.else20

if.then14:                                        ; preds = %if.else
  %8 = load ptr, ptr %doe_cap.addr, align 8
  %protocols = getelementptr inbounds %struct.DOECap, ptr %8, i32 0, i32 10
  %9 = load ptr, ptr %protocols, align 8
  %10 = load i8, ptr %index, align 1
  %conv15 = zext i8 %10 to i32
  %sub = sub i32 %conv15, 1
  %idxprom = sext i32 %sub to i64
  %arrayidx = getelementptr %struct.DOEProtocol, ptr %9, i64 %idxprom
  store ptr %arrayidx, ptr %prot, align 8
  %11 = load ptr, ptr %prot, align 8
  %vendor_id16 = getelementptr inbounds %struct.DOEProtocol, ptr %11, i32 0, i32 0
  %12 = load i16, ptr %vendor_id16, align 8
  %vendor_id17 = getelementptr inbounds %struct.DoeDiscoveryRsp, ptr %rsp, i32 0, i32 1
  store i16 %12, ptr %vendor_id17, align 1
  %13 = load ptr, ptr %prot, align 8
  %data_obj_type18 = getelementptr inbounds %struct.DOEProtocol, ptr %13, i32 0, i32 1
  %14 = load i8, ptr %data_obj_type18, align 2
  %data_obj_type19 = getelementptr inbounds %struct.DoeDiscoveryRsp, ptr %rsp, i32 0, i32 2
  store i8 %14, ptr %data_obj_type19, align 1
  br label %if.end23

if.else20:                                        ; preds = %if.else
  %vendor_id21 = getelementptr inbounds %struct.DoeDiscoveryRsp, ptr %rsp, i32 0, i32 1
  store i16 -1, ptr %vendor_id21, align 1
  %data_obj_type22 = getelementptr inbounds %struct.DoeDiscoveryRsp, ptr %rsp, i32 0, i32 2
  store i8 -1, ptr %data_obj_type22, align 1
  br label %if.end23

if.end23:                                         ; preds = %if.else20, %if.then14
  br label %if.end24

if.end24:                                         ; preds = %if.end23, %if.then7
  %15 = load i8, ptr %index, align 1
  %conv25 = zext i8 %15 to i32
  %add = add i32 %conv25, 1
  %16 = load ptr, ptr %doe_cap.addr, align 8
  %protocol_num26 = getelementptr inbounds %struct.DOECap, ptr %16, i32 0, i32 11
  %17 = load i16, ptr %protocol_num26, align 8
  %conv27 = zext i16 %17 to i32
  %cmp28 = icmp eq i32 %add, %conv27
  br i1 %cmp28, label %if.then30, label %if.else31

if.then30:                                        ; preds = %if.end24
  %next_index = getelementptr inbounds %struct.DoeDiscoveryRsp, ptr %rsp, i32 0, i32 3
  store i8 0, ptr %next_index, align 1
  br label %if.end36

if.else31:                                        ; preds = %if.end24
  %18 = load i8, ptr %index, align 1
  %conv32 = zext i8 %18 to i32
  %add33 = add i32 %conv32, 1
  %conv34 = trunc i32 %add33 to i8
  %next_index35 = getelementptr inbounds %struct.DoeDiscoveryRsp, ptr %rsp, i32 0, i32 3
  store i8 %conv34, ptr %next_index35, align 1
  br label %if.end36

if.end36:                                         ; preds = %if.else31, %if.then30
  %19 = load ptr, ptr %doe_cap.addr, align 8
  call void @pcie_doe_set_rsp(ptr noundef %19, ptr noundef %rsp)
  store i1 true, ptr %retval, align 1
  br label %return

return:                                           ; preds = %if.end36, %if.then
  %20 = load i1, ptr %retval, align 1
  ret i1 %20
}