; Function Attrs: mustprogress nofree norecurse nosync nounwind sspstrong willreturn memory(readwrite, inaccessiblemem: none) uwtable
define internal noundef zeroext i1 @pcie_doe_discovery(ptr noundef captures(none) %doe_cap) unnamed_addr #5 {
pcie_doe_get_obj_len.exit:
  %write_mbox.i = getelementptr inbounds nuw i8, ptr %doe_cap, i64 24
  %0 = load ptr, ptr %write_mbox.i, align 8
  %index1 = getelementptr inbounds nuw i8, ptr %0, i64 8
  %1 = load i8, ptr %index1, align 1
  %length.i = getelementptr inbounds nuw i8, ptr %0, i64 4
  %2 = load i32, ptr %length.i, align 1
  %and.i = and i32 %2, 262143
  %3 = add nsw i32 %and.i, -3
  %cmp = icmp ult i32 %3, -2
  br i1 %cmp, label %if.end, label %return

if.end:                                           ; preds = %pcie_doe_get_obj_len.exit
  %conv4 = zext i8 %1 to i32
  %cmp5 = icmp eq i8 %1, 0
  %protocol_num26.phi.trans.insert = getelementptr inbounds nuw i8, ptr %doe_cap, i64 64
  %.pre = load i16, ptr %protocol_num26.phi.trans.insert, align 8
  br i1 %cmp5, label %if.end24, label %if.else

if.else:                                          ; preds = %if.end
  %4 = zext i8 %1 to i16
  %cmp12 = icmp ugt i16 %.pre, %4
  br i1 %cmp12, label %if.then14, label %if.end24

if.then14:                                        ; preds = %if.else
  %protocols = getelementptr inbounds nuw i8, ptr %doe_cap, i64 56
  %5 = load ptr, ptr %protocols, align 8
  %6 = zext i8 %1 to i64
  %7 = getelementptr %struct.DOEProtocol, ptr %5, i64 %6
  %arrayidx = getelementptr i8, ptr %7, i64 -16
  %8 = load i16, ptr %arrayidx, align 8
  %data_obj_type18 = getelementptr i8, ptr %7, i64 -14
  %9 = load i8, ptr %data_obj_type18, align 2
  br label %if.end24

if.end24:                                         ; preds = %if.end, %if.else, %if.then14
  %rsp.sroa.5.0 = phi i16 [ %8, %if.then14 ], [ -1, %if.else ], [ 1, %if.end ]
  %rsp.sroa.8.0 = phi i8 [ %9, %if.then14 ], [ -1, %if.else ], [ 0, %if.end ]
  %add = add nuw nsw i32 %conv4, 1
  %conv27 = zext i16 %.pre to i32
  %cmp28 = icmp eq i32 %add, %conv27
  %conv34 = trunc i32 %add to i8
  %spec.select = select i1 %cmp28, i8 0, i8 %conv34
  %read_mbox.i = getelementptr inbounds nuw i8, ptr %doe_cap, i64 32
  %10 = load ptr, ptr %read_mbox.i, align 8
  %read_mbox_len.i = getelementptr inbounds nuw i8, ptr %doe_cap, i64 44
  %11 = load i32, ptr %read_mbox_len.i, align 4
  %idx.ext.i = zext i32 %11 to i64
  %add.ptr.i = getelementptr i32, ptr %10, i64 %idx.ext.i
  store i16 1, ptr %add.ptr.i, align 4
  %rsp.sroa.2.0.add.ptr.i.sroa_idx = getelementptr inbounds nuw i8, ptr %add.ptr.i, i64 2
  store i8 0, ptr %rsp.sroa.2.0.add.ptr.i.sroa_idx, align 2
  %rsp.sroa.3.0.add.ptr.i.sroa_idx = getelementptr inbounds nuw i8, ptr %add.ptr.i, i64 3
  store i8 0, ptr %rsp.sroa.3.0.add.ptr.i.sroa_idx, align 1
  %rsp.sroa.4.0.add.ptr.i.sroa_idx = getelementptr inbounds nuw i8, ptr %add.ptr.i, i64 4
  store i32 3, ptr %rsp.sroa.4.0.add.ptr.i.sroa_idx, align 4
  %rsp.sroa.5.0.add.ptr.i.sroa_idx = getelementptr inbounds nuw i8, ptr %add.ptr.i, i64 8
  store i16 %rsp.sroa.5.0, ptr %rsp.sroa.5.0.add.ptr.i.sroa_idx, align 4
  %rsp.sroa.8.0.add.ptr.i.sroa_idx = getelementptr inbounds nuw i8, ptr %add.ptr.i, i64 10
  store i8 %rsp.sroa.8.0, ptr %rsp.sroa.8.0.add.ptr.i.sroa_idx, align 2
  %rsp.sroa.11.0.add.ptr.i.sroa_idx = getelementptr inbounds nuw i8, ptr %add.ptr.i, i64 11
  store i8 %spec.select, ptr %rsp.sroa.11.0.add.ptr.i.sroa_idx, align 1
  %12 = load i32, ptr %read_mbox_len.i, align 4
  %add.i = add i32 %12, 3
  store i32 %add.i, ptr %read_mbox_len.i, align 4
  br label %return

return:                                           ; preds = %pcie_doe_get_obj_len.exit, %if.end24
  ret i1 %cmp
}